target datalayout = "e-m:e-p270:32:32-p271:32:32-p272:64:64-i64:64-i128:128-f80:128-n8:16:32:64-S128"
target triple = "x86_64-pc-linux-gnu"

%class.anon.116 = type { i8 }
%"class.std::basic_string_view" = type { i64, ptr }
%"class.std::__cxx11::basic_string" = type { %"struct.std::__cxx11::basic_string<char>::_Alloc_hider", i64, %union.anon }
%"struct.std::__cxx11::basic_string<char>::_Alloc_hider" = type { ptr }
%union.anon = type { i64, [8 x i8] }
%class.anon.89 = type <{ ptr, i32, [4 x i8] }>
%"class.std::initializer_list" = type { ptr, i64 }
%"struct.std::pair.107" = type { %"class.std::basic_string_view", ptr }
%class.cmAlphaNum = type { ptr, %"class.std::basic_string_view", [32 x i8] }

@.str.74 = private unnamed_addr constant [3 x i8] c": \00", align 1
@.str.75 = private unnamed_addr constant [20 x i8] c"UIC_UI_FILES entry \00", align 1
@_ZZ8cmStrCatIRA20_KcRKjJRA3_S0_RSt17basic_string_viewIcSt11char_traitsIcEEEENSt7__cxx1112basic_stringIcS9_SaIcEEEOT_OT0_DpOT1_E8makePair = linkonce_odr dso_local constant %class.anon.116 undef, comdat, align 1

; Function Attrs: mustprogress nounwind uwtable
define linkonce_odr dso_local noundef i64 @_ZNSt11char_traitsIcE6lengthEPKc(ptr noundef %0) #6 comdat align 2 {
  %2 = alloca ptr, align 8
  store ptr %0, ptr %2, align 8
  %3 = load ptr, ptr %2, align 8
  %4 = call i64 @strlen(ptr noundef %3) #3
  ret i64 %4
}

; Function Attrs: mustprogress nounwind uwtable
define linkonce_odr dso_local void @_ZNSt4pairISt17basic_string_viewIcSt11char_traitsIcEEPNSt7__cxx1112basic_stringIcS2_SaIcEEEEC2IS3_S8_TnNSt9enable_ifIXaaclsr5_PCCPE22_MoveConstructiblePairIT_T0_EEclsr5_PCCPE30_ImplicitlyMoveConvertiblePairISC_SD_EEEbE4typeELb1EEEOSC_OSD_(ptr noundef nonnull align 8 dereferenceable(24) %0, ptr noundef nonnull align 8 dereferenceable(16) %1, ptr noundef nonnull align 8 dereferenceable(8) %2) unnamed_addr #6 comdat align 2 {
  %4 = alloca ptr, align 8
  %5 = alloca ptr, align 8
  %6 = alloca ptr, align 8
  store ptr %0, ptr %4, align 8
  store ptr %1, ptr %5, align 8
  store ptr %2, ptr %6, align 8
  %7 = load ptr, ptr %4, align 8
  %8 = getelementptr inbounds %"struct.std::pair.107", ptr %7, i32 0, i32 0
  %9 = load ptr, ptr %5, align 8
  call void @llvm.memcpy.p0.p0.i64(ptr align 8 %8, ptr align 8 %9, i64 16, i1 false)
  %10 = getelementptr inbounds %"struct.std::pair.107", ptr %7, i32 0, i32 1
  %11 = load ptr, ptr %6, align 8
  %12 = load ptr, ptr %11, align 8
  store ptr %12, ptr %10, align 8
  ret void
}

; Function Attrs: mustprogress nounwind uwtable
define linkonce_odr dso_local noundef ptr @_ZNK10cmAlphaNum12RValueStringB5cxx11Ev(ptr noundef nonnull align 8 dereferenceable(56) %0) #6 comdat align 2 {
  %2 = alloca ptr, align 8
  store ptr %0, ptr %2, align 8
  %3 = load ptr, ptr %2, align 8
  %4 = getelementptr inbounds %class.cmAlphaNum, ptr %3, i32 0, i32 0
  %5 = load ptr, ptr %4, align 8
  ret ptr %5
}

; Function Attrs: mustprogress nounwind uwtable
define linkonce_odr dso_local { i64, ptr } @_ZNK10cmAlphaNum4ViewEv(ptr noundef nonnull align 8 dereferenceable(56) %0) #6 comdat align 2 {
  %2 = alloca %"class.std::basic_string_view", align 8
  %3 = alloca ptr, align 8
  store ptr %0, ptr %3, align 8
  %4 = load ptr, ptr %3, align 8
  %5 = getelementptr inbounds %class.cmAlphaNum, ptr %4, i32 0, i32 0
  %6 = load ptr, ptr %5, align 8
  %7 = icmp ne ptr %6, null
  br i1 %7, label %8, label %16

8:                                                ; preds = %1
  %9 = getelementptr inbounds %class.cmAlphaNum, ptr %4, i32 0, i32 0
  %10 = load ptr, ptr %9, align 8
  %11 = call { i64, ptr } @_ZNKSt7__cxx1112basic_stringIcSt11char_traitsIcESaIcEEcvSt17basic_string_viewIcS2_EEv(ptr noundef nonnull align 8 dereferenceable(32) %10) #3
  %12 = getelementptr inbounds { i64, ptr }, ptr %2, i32 0, i32 0
  %13 = extractvalue { i64, ptr } %11, 0
  store i64 %13, ptr %12, align 8
  %14 = getelementptr inbounds { i64, ptr }, ptr %2, i32 0, i32 1
  %15 = extractvalue { i64, ptr } %11, 1
  store ptr %15, ptr %14, align 8
  br label %18

16:                                               ; preds = %1
  %17 = getelementptr inbounds %class.cmAlphaNum, ptr %4, i32 0, i32 1
  call void @llvm.memcpy.p0.p0.i64(ptr align 8 %2, ptr align 8 %17, i64 16, i1 false)
  br label %18

18:                                               ; preds = %16, %8
  %19 = load { i64, ptr }, ptr %2, align 8
  ret { i64, ptr } %19
}

; Function Attrs: mustprogress nounwind uwtable
define linkonce_odr dso_local void @_ZNSt17basic_string_viewIcSt11char_traitsIcEEC2EPKc(ptr noundef nonnull align 8 dereferenceable(16) %0, ptr noundef nonnull %1) unnamed_addr #6 comdat align 2 {
  %3 = alloca ptr, align 8
  %4 = alloca ptr, align 8
  store ptr %0, ptr %3, align 8
  store ptr %1, ptr %4, align 8
  %5 = load ptr, ptr %3, align 8
  %6 = getelementptr inbounds %"class.std::basic_string_view", ptr %5, i32 0, i32 0
  %7 = load ptr, ptr %4, align 8
  %8 = call noundef i64 @_ZNSt11char_traitsIcE6lengthEPKc(ptr noundef %7)
  store i64 %8, ptr %6, align 8
  %9 = getelementptr inbounds %"class.std::basic_string_view", ptr %5, i32 0, i32 1
  %10 = load ptr, ptr %4, align 8
  store ptr %10, ptr %9, align 8
  ret void
}

; Function Attrs: mustprogress nounwind uwtable
define linkonce_odr dso_local void @_ZN10cmAlphaNumC2ESt17basic_string_viewIcSt11char_traitsIcEE(ptr noundef nonnull align 8 dereferenceable(56) %0, i64 %1, ptr %2) unnamed_addr #6 comdat align 2 {
  %4 = alloca %"class.std::basic_string_view", align 8
  %5 = alloca ptr, align 8
  %6 = getelementptr inbounds { i64, ptr }, ptr %4, i32 0, i32 0
  store i64 %1, ptr %6, align 8
  %7 = getelementptr inbounds { i64, ptr }, ptr %4, i32 0, i32 1
  store ptr %2, ptr %7, align 8
  store ptr %0, ptr %5, align 8
  %8 = load ptr, ptr %5, align 8
  %9 = getelementptr inbounds %class.cmAlphaNum, ptr %8, i32 0, i32 0
  store ptr null, ptr %9, align 8
  %10 = getelementptr inbounds %class.cmAlphaNum, ptr %8, i32 0, i32 1
  call void @llvm.memcpy.p0.p0.i64(ptr align 8 %10, ptr align 8 %4, i64 16, i1 false)
  ret void
}

; Function Attrs: mustprogress uwtable
define linkonce_odr dso_local void @_ZZ8cmStrCatIRA20_KcRKjJRA3_S0_RSt17basic_string_viewIcSt11char_traitsIcEEEENSt7__cxx1112basic_stringIcS9_SaIcEEEOT_OT0_DpOT1_ENKUlRK10cmAlphaNumE_clB5cxx11ESP_(ptr dead_on_unwind noalias writable sret(%"struct.std::pair.107") align 8 %0, ptr noundef nonnull align 1 dereferenceable(1) %1, ptr noundef nonnull align 8 dereferenceable(56) %2) #4 comdat align 2 {
  %4 = alloca ptr, align 8
  %5 = alloca ptr, align 8
  %6 = alloca %"class.std::basic_string_view", align 8
  %7 = alloca ptr, align 8
  store ptr %1, ptr %4, align 8
  store ptr %2, ptr %5, align 8
  %8 = load ptr, ptr %5, align 8
  %9 = call { i64, ptr } @_ZNK10cmAlphaNum4ViewEv(ptr noundef nonnull align 8 dereferenceable(56) %8)
  %10 = getelementptr inbounds { i64, ptr }, ptr %6, i32 0, i32 0
  %11 = extractvalue { i64, ptr } %9, 0
  store i64 %11, ptr %10, align 8
  %12 = getelementptr inbounds { i64, ptr }, ptr %6, i32 0, i32 1
  %13 = extractvalue { i64, ptr } %9, 1
  store ptr %13, ptr %12, align 8
  %14 = load ptr, ptr %5, align 8
  %15 = call noundef ptr @_ZNK10cmAlphaNum12RValueStringB5cxx11Ev(ptr noundef nonnull align 8 dereferenceable(56) %14)
  store ptr %15, ptr %7, align 8
  call void @_ZNSt4pairISt17basic_string_viewIcSt11char_traitsIcEEPNSt7__cxx1112basic_stringIcS2_SaIcEEEEC2IS3_S8_TnNSt9enable_ifIXaaclsr5_PCCPE22_MoveConstructiblePairIT_T0_EEclsr5_PCCPE30_ImplicitlyMoveConvertiblePairISC_SD_EEEbE4typeELb1EEEOSC_OSD_(ptr noundef nonnull align 8 dereferenceable(24) %0, ptr noundef nonnull align 8 dereferenceable(16) %6, ptr noundef nonnull align 8 dereferenceable(8) %7)
  ret void
}

; Function Attrs: mustprogress nounwind uwtable
define linkonce_odr dso_local void @_ZN10cmAlphaNumC2EPKc(ptr noundef nonnull align 8 dereferenceable(56) %0, ptr noundef %1) unnamed_addr #6 comdat align 2 {
  %3 = alloca ptr, align 8
  %4 = alloca ptr, align 8
  store ptr %0, ptr %3, align 8
  store ptr %1, ptr %4, align 8
  %5 = load ptr, ptr %3, align 8
  %6 = getelementptr inbounds %class.cmAlphaNum, ptr %5, i32 0, i32 0
  store ptr null, ptr %6, align 8
  %7 = getelementptr inbounds %class.cmAlphaNum, ptr %5, i32 0, i32 1
  %8 = load ptr, ptr %4, align 8
  call void @_ZNSt17basic_string_viewIcSt11char_traitsIcEEC2EPKc(ptr noundef nonnull align 8 dereferenceable(16) %7, ptr noundef %8) #3
  ret void
}

; Function Attrs: mustprogress uwtable
define linkonce_odr dso_local void @_Z8cmStrCatIRA20_KcRKjJRA3_S0_RSt17basic_string_viewIcSt11char_traitsIcEEEENSt7__cxx1112basic_stringIcS9_SaIcEEEOT_OT0_DpOT1_(ptr dead_on_unwind noalias writable sret(%"class.std::__cxx11::basic_string") align 8 %0, ptr noundef nonnull align 1 dereferenceable(20) %1, ptr noundef nonnull align 4 dereferenceable(4) %2, ptr noundef nonnull align 1 dereferenceable(3) %3, ptr noundef nonnull align 8 dereferenceable(16) %4) #4 comdat {
  %6 = alloca ptr, align 8
  %7 = alloca ptr, align 8
  %8 = alloca ptr, align 8
  %9 = alloca ptr, align 8
  %10 = alloca ptr, align 8
  %11 = alloca %"class.std::initializer_list", align 8
  %12 = alloca [4 x %"struct.std::pair.107"], align 8
  %13 = alloca %class.cmAlphaNum, align 8
  %14 = alloca %class.cmAlphaNum, align 8
  %15 = alloca %class.cmAlphaNum, align 8
  %16 = alloca %class.cmAlphaNum, align 8
  %17 = alloca %"class.std::basic_string_view", align 8
  store ptr %0, ptr %6, align 8
  store ptr %1, ptr %7, align 8
  store ptr %2, ptr %8, align 8
  store ptr %3, ptr %9, align 8
  store ptr %4, ptr %10, align 8
  %18 = getelementptr inbounds [4 x %"struct.std::pair.107"], ptr %12, i64 0, i64 0
  %19 = load ptr, ptr %7, align 8
  %20 = getelementptr inbounds [20 x i8], ptr %19, i64 0, i64 0
  call void @_ZN10cmAlphaNumC2EPKc(ptr noundef nonnull align 8 dereferenceable(56) %13, ptr noundef %20)
  call void @_ZZ8cmStrCatIRA20_KcRKjJRA3_S0_RSt17basic_string_viewIcSt11char_traitsIcEEEENSt7__cxx1112basic_stringIcS9_SaIcEEEOT_OT0_DpOT1_ENKUlRK10cmAlphaNumE_clB5cxx11ESP_(ptr dead_on_unwind writable sret(%"struct.std::pair.107") align 8 %18, ptr noundef nonnull align 1 dereferenceable(1) @_ZZ8cmStrCatIRA20_KcRKjJRA3_S0_RSt17basic_string_viewIcSt11char_traitsIcEEEENSt7__cxx1112basic_stringIcS9_SaIcEEEOT_OT0_DpOT1_E8makePair, ptr noundef nonnull align 8 dereferenceable(56) %13)
  %21 = getelementptr inbounds %"struct.std::pair.107", ptr %18, i64 1
  %22 = load ptr, ptr %8, align 8
  %23 = load i32, ptr %22, align 4
  call void @_ZN10cmAlphaNumC1Ej(ptr noundef nonnull align 8 dereferenceable(56) %14, i32 noundef %23)
  call void @_ZZ8cmStrCatIRA20_KcRKjJRA3_S0_RSt17basic_string_viewIcSt11char_traitsIcEEEENSt7__cxx1112basic_stringIcS9_SaIcEEEOT_OT0_DpOT1_ENKUlRK10cmAlphaNumE_clB5cxx11ESP_(ptr dead_on_unwind writable sret(%"struct.std::pair.107") align 8 %21, ptr noundef nonnull align 1 dereferenceable(1) @_ZZ8cmStrCatIRA20_KcRKjJRA3_S0_RSt17basic_string_viewIcSt11char_traitsIcEEEENSt7__cxx1112basic_stringIcS9_SaIcEEEOT_OT0_DpOT1_E8makePair, ptr noundef nonnull align 8 dereferenceable(56) %14)
  %24 = getelementptr inbounds %"struct.std::pair.107", ptr %21, i64 1
  %25 = load ptr, ptr %9, align 8
  %26 = getelementptr inbounds [3 x i8], ptr %25, i64 0, i64 0
  call void @_ZN10cmAlphaNumC2EPKc(ptr noundef nonnull align 8 dereferenceable(56) %15, ptr noundef %26)
  call void @_ZZ8cmStrCatIRA20_KcRKjJRA3_S0_RSt17basic_string_viewIcSt11char_traitsIcEEEENSt7__cxx1112basic_stringIcS9_SaIcEEEOT_OT0_DpOT1_ENKUlRK10cmAlphaNumE_clB5cxx11ESP_(ptr dead_on_unwind writable sret(%"struct.std::pair.107") align 8 %24, ptr noundef nonnull align 1 dereferenceable(1) @_ZZ8cmStrCatIRA20_KcRKjJRA3_S0_RSt17basic_string_viewIcSt11char_traitsIcEEEENSt7__cxx1112basic_stringIcS9_SaIcEEEOT_OT0_DpOT1_E8makePair, ptr noundef nonnull align 8 dereferenceable(56) %15)
  %27 = getelementptr inbounds %"struct.std::pair.107", ptr %24, i64 1
  %28 = load ptr, ptr %10, align 8
  call void @llvm.memcpy.p0.p0.i64(ptr align 8 %17, ptr align 8 %28, i64 16, i1 false)
  %29 = getelementptr inbounds { i64, ptr }, ptr %17, i32 0, i32 0
  %30 = load i64, ptr %29, align 8
  %31 = getelementptr inbounds { i64, ptr }, ptr %17, i32 0, i32 1
  %32 = load ptr, ptr %31, align 8
  call void @_ZN10cmAlphaNumC2ESt17basic_string_viewIcSt11char_traitsIcEE(ptr noundef nonnull align 8 dereferenceable(56) %16, i64 %30, ptr %32)
  call void @_ZZ8cmStrCatIRA20_KcRKjJRA3_S0_RSt17basic_string_viewIcSt11char_traitsIcEEEENSt7__cxx1112basic_stringIcS9_SaIcEEEOT_OT0_DpOT1_ENKUlRK10cmAlphaNumE_clB5cxx11ESP_(ptr dead_on_unwind writable sret(%"struct.std::pair.107") align 8 %27, ptr noundef nonnull align 1 dereferenceable(1) @_ZZ8cmStrCatIRA20_KcRKjJRA3_S0_RSt17basic_string_viewIcSt11char_traitsIcEEEENSt7__cxx1112basic_stringIcS9_SaIcEEEOT_OT0_DpOT1_E8makePair, ptr noundef nonnull align 8 dereferenceable(56) %16)
  %33 = getelementptr inbounds %"class.std::initializer_list", ptr %11, i32 0, i32 0
  %34 = getelementptr inbounds [4 x %"struct.std::pair.107"], ptr %12, i64 0, i64 0
  store ptr %34, ptr %33, align 8
  %35 = getelementptr inbounds %"class.std::initializer_list", ptr %11, i32 0, i32 1
  store i64 4, ptr %35, align 8
  %36 = getelementptr inbounds { ptr, i64 }, ptr %11, i32 0, i32 0
  %37 = load ptr, ptr %36, align 8
  %38 = getelementptr inbounds { ptr, i64 }, ptr %11, i32 0, i32 1
  %39 = load i64, ptr %38, align 8
  call void @_Z10cmCatViewsSt16initializer_listISt4pairISt17basic_string_viewIcSt11char_traitsIcEEPNSt7__cxx1112basic_stringIcS3_SaIcEEEEE(ptr dead_on_unwind writable sret(%"class.std::__cxx11::basic_string") align 8 %0, ptr %37, i64 %39)
  ret void
}

; Function Attrs: mustprogress uwtable
define internal noundef zeroext i1 @"_ZZN12_GLOBAL__N_115cmQtAutoMocUicT12InitFromInfoERKN17cmQtAutoGenerator5InfoTEENK3$_2clEbSt17basic_string_viewIcSt11char_traitsIcEE"(ptr noundef nonnull align 8 dereferenceable(12) %0, i1 noundef zeroext %1, i64 %2, ptr %3) #4 align 2 personality ptr @__gxx_personality_v0 {
  %5 = alloca %"class.std::basic_string_view", align 8
  %6 = alloca ptr, align 8
  %7 = alloca i8, align 1
  %8 = alloca %"class.std::basic_string_view", align 8
  %9 = alloca %"class.std::__cxx11::basic_string", align 8
  %10 = alloca ptr, align 8
  %11 = alloca i32, align 4
  %12 = getelementptr inbounds { i64, ptr }, ptr %5, i32 0, i32 0
  store i64 %2, ptr %12, align 8
  %13 = getelementptr inbounds { i64, ptr }, ptr %5, i32 0, i32 1
  store ptr %3, ptr %13, align 8
  store ptr %0, ptr %6, align 8
  %14 = zext i1 %1 to i8
  store i8 %14, ptr %7, align 1
  %15 = load ptr, ptr %6, align 8
  %16 = load i8, ptr %7, align 1
  %17 = trunc i8 %16 to i1
  br i1 %17, label %37, label %18

18:                                               ; preds = %4
  %19 = getelementptr inbounds %class.anon.89, ptr %15, i32 0, i32 0
  %20 = load ptr, ptr %19, align 8
  %21 = getelementptr inbounds %class.anon.89, ptr %15, i32 0, i32 1
  call void @_Z8cmStrCatIRA20_KcRKjJRA3_S0_RSt17basic_string_viewIcSt11char_traitsIcEEEENSt7__cxx1112basic_stringIcS9_SaIcEEEOT_OT0_DpOT1_(ptr dead_on_unwind writable sret(%"class.std::__cxx11::basic_string") align 8 %9, ptr noundef nonnull align 1 dereferenceable(20) @.str.75, ptr noundef nonnull align 4 dereferenceable(4) %21, ptr noundef nonnull align 1 dereferenceable(3) @.str.74, ptr noundef nonnull align 8 dereferenceable(16) %5)
  %22 = call { i64, ptr } @_ZNKSt7__cxx1112basic_stringIcSt11char_traitsIcESaIcEEcvSt17basic_string_viewIcS2_EEv(ptr noundef nonnull align 8 dereferenceable(32) %9) #3
  %23 = getelementptr inbounds { i64, ptr }, ptr %8, i32 0, i32 0
  %24 = extractvalue { i64, ptr } %22, 0
  store i64 %24, ptr %23, align 8
  %25 = getelementptr inbounds { i64, ptr }, ptr %8, i32 0, i32 1
  %26 = extractvalue { i64, ptr } %22, 1
  store ptr %26, ptr %25, align 8
  %27 = getelementptr inbounds { i64, ptr }, ptr %8, i32 0, i32 0
  %28 = load i64, ptr %27, align 8
  %29 = getelementptr inbounds { i64, ptr }, ptr %8, i32 0, i32 1
  %30 = load ptr, ptr %29, align 8
  %31 = invoke noundef zeroext i1 @_ZNK17cmQtAutoGenerator5InfoT8LogErrorESt17basic_string_viewIcSt11char_traitsIcEE(ptr noundef nonnull align 8 dereferenceable(48) %20, i64 %28, ptr %30)
          to label %32 unwind label %33

32:                                               ; preds = %18
  call void @_ZNSt7__cxx1112basic_stringIcSt11char_traitsIcESaIcEED1Ev(ptr noundef nonnull align 8 dereferenceable(32) %9) #3
  br label %37

33:                                               ; preds = %18
  %34 = landingpad { ptr, i32 }
          cleanup
  %35 = extractvalue { ptr, i32 } %34, 0
  store ptr %35, ptr %10, align 8
  %36 = extractvalue { ptr, i32 } %34, 1
  store i32 %36, ptr %11, align 4
  call void @_ZNSt7__cxx1112basic_stringIcSt11char_traitsIcESaIcEED1Ev(ptr noundef nonnull align 8 dereferenceable(32) %9) #3
  br label %41

37:                                               ; preds = %32, %4
  %38 = load i8, ptr %7, align 1
  %39 = trunc i8 %38 to i1
  %40 = xor i1 %39, true
  ret i1 %40

41:                                               ; preds = %33
  %42 = load ptr, ptr %10, align 8
  %43 = load i32, ptr %11, align 4
  %44 = insertvalue { ptr, i32 } poison, ptr %42, 0
  %45 = insertvalue { ptr, i32 } %44, i32 %43, 1
  resume { ptr, i32 } %45
}